target datalayout = "e-m:e-p270:32:32-p271:32:32-p272:64:64-i64:64-i128:128-f80:128-n8:16:32:64-S128"
target triple = "x86_64-pc-linux-gnu"

%struct.ExprContext = type { i32, ptr, ptr, ptr, ptr, ptr, ptr, ptr, ptr, ptr, i64, i8, i64, i8, ptr, ptr, ptr, ptr }
%struct.FmgrInfo = type { ptr, i32, i16, i8, i8, i8, ptr, ptr, ptr }
%struct.AggState = type { %struct.ScanState, ptr, i32, i32, i32, i32, ptr, i32, i32, ptr, ptr, ptr, ptr, ptr, ptr, ptr, ptr, i8, i8, i32, i32, ptr, ptr, ptr, i32, i8, i32, ptr, ptr, ptr, ptr, ptr, ptr, i8, i32, ptr, ptr, ptr, ptr, ptr, ptr, i8, i8, i64, i64, i32, double, i64, i64, i64, i32, ptr, ptr, ptr, ptr }
%struct.ScanState = type { %struct.PlanState, ptr, ptr, ptr }
%struct.PlanState = type { i32, ptr, ptr, ptr, ptr, ptr, ptr, ptr, ptr, ptr, ptr, ptr, ptr, ptr, ptr, ptr, ptr, ptr, i8, ptr, ptr, ptr, ptr, ptr, i8, i8, i8, i8, i8, i8, i8, i8 }
%struct.varattrib_1b = type { i8, [0 x i8] }
%struct.varattrib_1b_e = type { i8, i8, [0 x i8] }
%struct.ExpandedObjectHeader = type { i32, ptr, ptr, [10 x i8], [10 x i8] }
%struct.AggStatePerTransData = type { ptr, i8, i8, i32, i32, i32, i32, i32, i32, %struct.FmgrInfo, %struct.FmgrInfo, %struct.FmgrInfo, i32, i32, i32, ptr, ptr, ptr, ptr, %struct.FmgrInfo, ptr, i64, i8, i16, i16, i8, i8, ptr, ptr, ptr, i64, i8, i8, ptr, ptr, ptr, ptr }

@CurrentMemoryContext = external global ptr, align 8

; Function Attrs: inlinehint nounwind uwtable
define internal ptr @DatumGetPointer(i64 noundef %0) #2 {
  %2 = alloca i64, align 8
  store i64 %0, ptr %2, align 8
  %3 = load i64, ptr %2, align 8
  %4 = inttoptr i64 %3 to ptr
  ret ptr %4
}

; Function Attrs: inlinehint nounwind uwtable
define internal ptr @MemoryContextSwitchTo(ptr noundef %0) #2 {
  %2 = alloca ptr, align 8
  %3 = alloca ptr, align 8
  store ptr %0, ptr %2, align 8
  call void @llvm.lifetime.start.p0(i64 8, ptr %3) #11
  %4 = load ptr, ptr @CurrentMemoryContext, align 8
  store ptr %4, ptr %3, align 8
  %5 = load ptr, ptr %2, align 8
  store ptr %5, ptr @CurrentMemoryContext, align 8
  %6 = load ptr, ptr %3, align 8
  call void @llvm.lifetime.end.p0(i64 8, ptr %3) #11
  ret ptr %6
}

; Function Attrs: nounwind uwtable
define dso_local i64 @ExecAggCopyTransValue(ptr noundef %0, ptr noundef %1, i64 noundef %2, i1 noundef zeroext %3, i64 noundef %4, i1 noundef zeroext %5) #0 {
  %7 = alloca ptr, align 8
  %8 = alloca ptr, align 8
  %9 = alloca i64, align 8
  %10 = alloca i8, align 1
  %11 = alloca i64, align 8
  %12 = alloca i8, align 1
  store ptr %0, ptr %7, align 8
  store ptr %1, ptr %8, align 8
  store i64 %2, ptr %9, align 8
  %13 = zext i1 %3 to i8
  store i8 %13, ptr %10, align 1
  store i64 %4, ptr %11, align 8
  %14 = zext i1 %5 to i8
  store i8 %14, ptr %12, align 1
  %15 = load i8, ptr %10, align 1, !range !7, !noundef !8
  %16 = trunc i8 %15 to i1
  br i1 %16, label %65, label %17

17:                                               ; preds = %6
  %18 = load ptr, ptr %7, align 8
  %19 = getelementptr inbounds nuw %struct.AggState, ptr %18, i32 0, i32 14
  %20 = load ptr, ptr %19, align 8
  %21 = getelementptr inbounds nuw %struct.ExprContext, ptr %20, i32 0, i32 5
  %22 = load ptr, ptr %21, align 8
  %23 = call ptr @MemoryContextSwitchTo(ptr noundef %22)
  %24 = load ptr, ptr %8, align 8
  %25 = getelementptr inbounds nuw %struct.AggStatePerTransData, ptr %24, i32 0, i32 24
  %26 = load i16, ptr %25, align 4
  %27 = sext i16 %26 to i32
  %28 = icmp ne i32 %27, -1
  br i1 %28, label %29, label %30

29:                                               ; preds = %17
  br i1 false, label %44, label %53

30:                                               ; preds = %17
  %31 = load i64, ptr %9, align 8
  %32 = call ptr @DatumGetPointer(i64 noundef %31)
  %33 = getelementptr inbounds nuw %struct.varattrib_1b, ptr %32, i32 0, i32 0
  %34 = load i8, ptr %33, align 1
  %35 = zext i8 %34 to i32
  %36 = icmp eq i32 %35, 1
  br i1 %36, label %37, label %53

37:                                               ; preds = %30
  %38 = load i64, ptr %9, align 8
  %39 = call ptr @DatumGetPointer(i64 noundef %38)
  %40 = getelementptr inbounds nuw %struct.varattrib_1b_e, ptr %39, i32 0, i32 1
  %41 = load i8, ptr %40, align 1
  %42 = zext i8 %41 to i32
  %43 = icmp eq i32 %42, 3
  br i1 %43, label %44, label %53

44:                                               ; preds = %37, %29
  %45 = load i64, ptr %9, align 8
  %46 = call ptr @DatumGetEOHP(i64 noundef %45)
  %47 = getelementptr inbounds nuw %struct.ExpandedObjectHeader, ptr %46, i32 0, i32 2
  %48 = load ptr, ptr %47, align 8
  %49 = call ptr @MemoryContextGetParent(ptr noundef %48)
  %50 = load ptr, ptr @CurrentMemoryContext, align 8
  %51 = icmp eq ptr %49, %50
  br i1 %51, label %52, label %53

52:                                               ; preds = %44
  br label %64

53:                                               ; preds = %44, %37, %30, %29
  %54 = load i64, ptr %9, align 8
  %55 = load ptr, ptr %8, align 8
  %56 = getelementptr inbounds nuw %struct.AggStatePerTransData, ptr %55, i32 0, i32 26
  %57 = load i8, ptr %56, align 1, !range !7, !noundef !8
  %58 = trunc i8 %57 to i1
  %59 = load ptr, ptr %8, align 8
  %60 = getelementptr inbounds nuw %struct.AggStatePerTransData, ptr %59, i32 0, i32 24
  %61 = load i16, ptr %60, align 4
  %62 = sext i16 %61 to i32
  %63 = call i64 @datumCopy(i64 noundef %54, i1 noundef zeroext %58, i32 noundef %62)
  store i64 %63, ptr %9, align 8
  br label %64

64:                                               ; preds = %53, %52
  br label %66

65:                                               ; preds = %6
  store i64 0, ptr %9, align 8
  br label %66

66:                                               ; preds = %65, %64
  %67 = load i8, ptr %12, align 1, !range !7, !noundef !8
  %68 = trunc i8 %67 to i1
  br i1 %68, label %96, label %69

69:                                               ; preds = %66
  %70 = load ptr, ptr %8, align 8
  %71 = getelementptr inbounds nuw %struct.AggStatePerTransData, ptr %70, i32 0, i32 24
  %72 = load i16, ptr %71, align 4
  %73 = sext i16 %72 to i32
  %74 = icmp ne i32 %73, -1
  br i1 %74, label %75, label %76

75:                                               ; preds = %69
  br i1 false, label %90, label %92

76:                                               ; preds = %69
  %77 = load i64, ptr %11, align 8
  %78 = call ptr @DatumGetPointer(i64 noundef %77)
  %79 = getelementptr inbounds nuw %struct.varattrib_1b, ptr %78, i32 0, i32 0
  %80 = load i8, ptr %79, align 1
  %81 = zext i8 %80 to i32
  %82 = icmp eq i32 %81, 1
  br i1 %82, label %83, label %92

83:                                               ; preds = %76
  %84 = load i64, ptr %11, align 8
  %85 = call ptr @DatumGetPointer(i64 noundef %84)
  %86 = getelementptr inbounds nuw %struct.varattrib_1b_e, ptr %85, i32 0, i32 1
  %87 = load i8, ptr %86, align 1
  %88 = zext i8 %87 to i32
  %89 = icmp eq i32 %88, 3
  br i1 %89, label %90, label %92

90:                                               ; preds = %83, %75
  %91 = load i64, ptr %11, align 8
  call void @DeleteExpandedObject(i64 noundef %91)
  br label %95

92:                                               ; preds = %83, %76, %75
  %93 = load i64, ptr %11, align 8
  %94 = call ptr @DatumGetPointer(i64 noundef %93)
  call void @pfree(ptr noundef %94)
  br label %95

95:                                               ; preds = %92, %90
  br label %96

96:                                               ; preds = %95, %66
  %97 = load i64, ptr %9, align 8
  ret i64 %97
}