; Function Attrs: nounwind uwtable
define dso_local i64 @ExecAggCopyTransValue(ptr noundef readonly captures(none) %0, ptr noundef readonly captures(none) %1, i64 noundef %2, i1 noundef zeroext %3, i64 noundef %4, i1 noundef zeroext %5) local_unnamed_addr #0 {
  br i1 %3, label %36, label %7

7:                                                ; preds = %6
  %8 = getelementptr inbounds nuw i8, ptr %0, i64 304
  %9 = load ptr, ptr %8, align 8
  %10 = getelementptr inbounds nuw i8, ptr %9, i64 40
  %11 = load ptr, ptr %10, align 8
  store ptr %11, ptr @CurrentMemoryContext, align 8
  %12 = getelementptr inbounds nuw i8, ptr %1, i64 300
  %13 = load i16, ptr %12, align 4
  %.not = icmp eq i16 %13, -1
  br i1 %.not, label %14, label %29

14:                                               ; preds = %7
  %15 = inttoptr i64 %2 to ptr
  %16 = load i8, ptr %15, align 1
  %17 = icmp eq i8 %16, 1
  br i1 %17, label %18, label %29

18:                                               ; preds = %14
  %19 = getelementptr inbounds nuw i8, ptr %15, i64 1
  %20 = load i8, ptr %19, align 1
  %21 = icmp eq i8 %20, 3
  br i1 %21, label %22, label %29

22:                                               ; preds = %18
  %23 = tail call ptr @DatumGetEOHP(i64 noundef %2) #18
  %24 = getelementptr inbounds nuw i8, ptr %23, i64 16
  %25 = load ptr, ptr %24, align 8
  %26 = tail call ptr @MemoryContextGetParent(ptr noundef %25) #18
  %27 = load ptr, ptr @CurrentMemoryContext, align 8
  %28 = icmp eq ptr %26, %27
  br i1 %28, label %36, label %._crit_edge

._crit_edge:                                      ; preds = %22
  %.pre = load i16, ptr %12, align 4
  br label %29

29:                                               ; preds = %._crit_edge, %7, %18, %14
  %30 = phi i16 [ %.pre, %._crit_edge ], [ %13, %7 ], [ -1, %18 ], [ -1, %14 ]
  %31 = getelementptr inbounds nuw i8, ptr %1, i64 303
  %32 = load i8, ptr %31, align 1, !range !8, !noundef !9
  %33 = trunc nuw i8 %32 to i1
  %34 = sext i16 %30 to i32
  %35 = tail call i64 @datumCopy(i64 noundef %2, i1 noundef zeroext %33, i32 noundef %34) #18
  br label %36

36:                                               ; preds = %6, %29, %22
  %.0 = phi i64 [ %35, %29 ], [ %2, %22 ], [ 0, %6 ]
  br i1 %5, label %49, label %37

37:                                               ; preds = %36
  %38 = getelementptr inbounds nuw i8, ptr %1, i64 300
  %39 = load i16, ptr %38, align 4
  %.not15 = icmp eq i16 %39, -1
  %40 = inttoptr i64 %4 to ptr
  br i1 %.not15, label %41, label %._crit_edge16

41:                                               ; preds = %37
  %42 = load i8, ptr %40, align 1
  %43 = icmp eq i8 %42, 1
  br i1 %43, label %44, label %._crit_edge16

44:                                               ; preds = %41
  %45 = getelementptr inbounds nuw i8, ptr %40, i64 1
  %46 = load i8, ptr %45, align 1
  %47 = icmp eq i8 %46, 3
  br i1 %47, label %48, label %._crit_edge16

48:                                               ; preds = %44
  tail call void @DeleteExpandedObject(i64 noundef %4) #18
  br label %49

._crit_edge16:                                    ; preds = %37, %44, %41
  tail call void @pfree(ptr noundef %40) #18
  br label %49

49:                                               ; preds = %48, %._crit_edge16, %36
  ret i64 %.0
}